; Function Attrs: nounwind uwtable
define ptr @l_Array_mapFinIdxM_map___at_Lean_Meta_caseArraySizes___spec__3___boxed(ptr noundef readonly captures(none) %0) local_unnamed_addr #1 {
  %2 = load ptr, ptr %0, align 8, !tbaa !11
  %3 = getelementptr inbounds nuw i8, ptr %0, i64 8
  %4 = load ptr, ptr %3, align 8, !tbaa !11
  %5 = getelementptr inbounds nuw i8, ptr %0, i64 16
  %6 = load ptr, ptr %5, align 8, !tbaa !11
  %7 = getelementptr inbounds nuw i8, ptr %0, i64 24
  %8 = load ptr, ptr %7, align 8, !tbaa !11
  %9 = getelementptr inbounds nuw i8, ptr %0, i64 32
  %10 = load ptr, ptr %9, align 8, !tbaa !11
  %11 = getelementptr inbounds nuw i8, ptr %0, i64 40
  %12 = load ptr, ptr %11, align 8, !tbaa !11
  %13 = getelementptr inbounds nuw i8, ptr %0, i64 48
  %14 = load ptr, ptr %13, align 8, !tbaa !11
  %15 = getelementptr inbounds nuw i8, ptr %0, i64 56
  %16 = load ptr, ptr %15, align 8, !tbaa !11
  %17 = getelementptr inbounds nuw i8, ptr %0, i64 64
  %18 = load ptr, ptr %17, align 8, !tbaa !11
  %19 = getelementptr inbounds nuw i8, ptr %0, i64 72
  %20 = load ptr, ptr %19, align 8, !tbaa !11
  %21 = getelementptr inbounds nuw i8, ptr %0, i64 88
  %22 = load ptr, ptr %21, align 8, !tbaa !11
  %23 = getelementptr inbounds nuw i8, ptr %0, i64 96
  %24 = load ptr, ptr %23, align 8, !tbaa !11
  %25 = getelementptr inbounds nuw i8, ptr %0, i64 104
  %26 = load ptr, ptr %25, align 8, !tbaa !11
  %27 = getelementptr inbounds nuw i8, ptr %0, i64 112
  %28 = load ptr, ptr %27, align 8, !tbaa !11
  %29 = getelementptr inbounds nuw i8, ptr %0, i64 120
  %30 = load ptr, ptr %29, align 8, !tbaa !11
  %31 = getelementptr inbounds nuw i8, ptr %0, i64 128
  %32 = load ptr, ptr %31, align 8, !tbaa !11
  %33 = getelementptr i8, ptr %12, i64 8
  %.val = load i64, ptr %33, align 8, !tbaa !9
  %34 = ptrtoint ptr %12 to i64
  %35 = and i64 %34, 1
  %.not = icmp eq i64 %35, 0
  br i1 %.not, label %36, label %lean_dec.exit41

36:                                               ; preds = %1
  %37 = load i32, ptr %12, align 4, !tbaa !4
  %38 = icmp sgt i32 %37, 1
  br i1 %38, label %39, label %41, !prof !13

39:                                               ; preds = %36
  %40 = add nsw i32 %37, -1
  store i32 %40, ptr %12, align 4, !tbaa !4
  br label %lean_dec.exit41

41:                                               ; preds = %36
  %.not.i = icmp eq i32 %37, 0
  br i1 %.not.i, label %lean_dec.exit41, label %42

42:                                               ; preds = %41
  tail call void @lean_dec_ref_cold(ptr noundef nonnull %12) #6
  br label %lean_dec.exit41

lean_dec.exit41:                                  ; preds = %42, %41, %39, %1
  %43 = tail call ptr @l_Array_mapFinIdxM_map___at_Lean_Meta_caseArraySizes___spec__3(ptr noundef %2, ptr noundef %4, ptr noundef %6, ptr noundef %8, ptr noundef %10, i64 noundef %.val, ptr poison, ptr noundef %16, ptr noundef %18, ptr noundef %20, ptr poison, ptr noundef %22, ptr noundef %24, ptr noundef %26, ptr noundef %28, ptr noundef %30, ptr noundef %32)
  %44 = ptrtoint ptr %16 to i64
  %45 = and i64 %44, 1
  %.not48 = icmp eq i64 %45, 0
  br i1 %.not48, label %46, label %lean_dec.exit40

46:                                               ; preds = %lean_dec.exit41
  %47 = load i32, ptr %16, align 4, !tbaa !4
  %48 = icmp sgt i32 %47, 1
  br i1 %48, label %49, label %51, !prof !13

49:                                               ; preds = %46
  %50 = add nsw i32 %47, -1
  store i32 %50, ptr %16, align 4, !tbaa !4
  br label %lean_dec.exit40

51:                                               ; preds = %46
  %.not.i42 = icmp eq i32 %47, 0
  br i1 %.not.i42, label %lean_dec.exit40, label %52

52:                                               ; preds = %51
  tail call void @lean_dec_ref_cold(ptr noundef nonnull %16) #6
  br label %lean_dec.exit40

lean_dec.exit40:                                  ; preds = %52, %51, %49, %lean_dec.exit41
  %53 = ptrtoint ptr %14 to i64
  %54 = and i64 %53, 1
  %.not49 = icmp eq i64 %54, 0
  br i1 %.not49, label %55, label %lean_dec.exit39

55:                                               ; preds = %lean_dec.exit40
  %56 = load i32, ptr %14, align 4, !tbaa !4
  %57 = icmp sgt i32 %56, 1
  br i1 %57, label %58, label %60, !prof !13

58:                                               ; preds = %55
  %59 = add nsw i32 %56, -1
  store i32 %59, ptr %14, align 4, !tbaa !4
  br label %lean_dec.exit39

60:                                               ; preds = %55
  %.not.i44 = icmp eq i32 %56, 0
  br i1 %.not.i44, label %lean_dec.exit39, label %61

61:                                               ; preds = %60
  tail call void @lean_dec_ref_cold(ptr noundef nonnull %14) #6
  br label %lean_dec.exit39

lean_dec.exit39:                                  ; preds = %61, %60, %58, %lean_dec.exit40
  %62 = ptrtoint ptr %2 to i64
  %63 = and i64 %62, 1
  %.not50 = icmp eq i64 %63, 0
  br i1 %.not50, label %64, label %lean_dec.exit

64:                                               ; preds = %lean_dec.exit39
  %65 = load i32, ptr %2, align 4, !tbaa !4
  %66 = icmp sgt i32 %65, 1
  br i1 %66, label %67, label %69, !prof !13

67:                                               ; preds = %64
  %68 = add nsw i32 %65, -1
  store i32 %68, ptr %2, align 4, !tbaa !4
  br label %lean_dec.exit

69:                                               ; preds = %64
  %.not.i46 = icmp eq i32 %65, 0
  br i1 %.not.i46, label %lean_dec.exit, label %70

70:                                               ; preds = %69
  tail call void @lean_dec_ref_cold(ptr noundef nonnull %2) #6
  br label %lean_dec.exit

lean_dec.exit:                                    ; preds = %70, %69, %67, %lean_dec.exit39
  ret ptr %43
}